; Function Attrs: nounwind sspstrong uwtable
define internal void @zlib_recv_cleanup(ptr noundef captures(none) %p) #0 {
entry:
  %data = getelementptr inbounds nuw i8, ptr %p, i64 296
  %0 = load ptr, ptr %data, align 8
  %call = tail call i32 @inflateEnd(ptr noundef %0) #6
  %zbuff = getelementptr inbounds nuw i8, ptr %0, i64 112
  %1 = load ptr, ptr %zbuff, align 8
  tail call void @g_free(ptr noundef %1) #6
  store ptr null, ptr %zbuff, align 8
  %2 = load ptr, ptr %data, align 8
  tail call void @g_free(ptr noundef %2) #6
  store ptr null, ptr %data, align 8
  ret void
}